; Function Attrs: nofree nounwind uwtable
define range(i64 0, 4294967296) i64 @zfp_decode_block_strided_double_1(ptr noundef readonly captures(none) %0, ptr noundef writeonly captures(none) %1, i64 noundef %2) local_unnamed_addr #0 {
  %4 = alloca [4 x double], align 256
  call void @llvm.lifetime.start.p0(i64 32, ptr nonnull %4) #8
  %5 = call i64 @zfp_decode_block_double_1(ptr noundef %0, ptr noundef nonnull %4)
  br label %6

6:                                                ; preds = %6, %3
  %.09.i = phi i32 [ 0, %3 ], [ %9, %6 ]
  %.058.i = phi ptr [ %4, %3 ], [ %7, %6 ]
  %.067.i = phi ptr [ %1, %3 ], [ %10, %6 ]
  %7 = getelementptr inbounds nuw i8, ptr %.058.i, i64 8
  %8 = load double, ptr %.058.i, align 8, !tbaa !20
  store double %8, ptr %.067.i, align 8, !tbaa !20
  %9 = add nuw nsw i32 %.09.i, 1
  %10 = getelementptr inbounds double, ptr %.067.i, i64 %2
  %exitcond.not.i = icmp eq i32 %9, 4
  br i1 %exitcond.not.i, label %scatter_double_1.exit, label %6

scatter_double_1.exit:                            ; preds = %6
  call void @llvm.lifetime.end.p0(i64 32, ptr nonnull %4) #8
  ret i64 %5
}